; Function Attrs: nounwind uwtable
define i32 @lv_group_get_obj_count(ptr noundef %0) local_unnamed_addr #0 {
  %.not = icmp eq ptr %0, null
  br i1 %.not, label %.preheader, label %2

.preheader:                                       ; preds = %1, %.preheader
  br label %.preheader

2:                                                ; preds = %1
  %3 = tail call i32 @lv_ll_get_len(ptr noundef nonnull %0) #10
  ret i32 %3
}